; Function Attrs: nounwind uwtable
define internal ptr @_sha3_shake_128_hexdigest(ptr noundef readonly captures(none) %0, ptr noundef %1) #0 {
  %3 = alloca i64, align 8
  call void @llvm.lifetime.start.p0(i64 8, ptr nonnull %3) #4
  %4 = call i32 @_PyLong_UnsignedLong_Converter(ptr noundef %1, ptr noundef nonnull %3) #4
  %.not = icmp eq i32 %4, 0
  br i1 %.not, label %_sha3_shake_128_hexdigest_impl.exit, label %5

5:                                                ; preds = %2
  %6 = load i64, ptr %3, align 8, !tbaa !62
  %7 = icmp ugt i64 %6, 536870911
  br i1 %7, label %8, label %10

8:                                                ; preds = %5
  %9 = load ptr, ptr @PyExc_ValueError, align 8, !tbaa !39
  call void @PyErr_SetString(ptr noundef %9, ptr noundef nonnull @.str.43) #4
  br label %_sha3_shake_128_hexdigest_impl.exit

10:                                               ; preds = %5
  %11 = call ptr @PyMem_Malloc(i64 noundef %6) #4
  %12 = icmp eq ptr %11, null
  br i1 %12, label %13, label %15

13:                                               ; preds = %10
  %14 = call ptr @PyErr_NoMemory() #4
  br label %_sha3_shake_128_hexdigest_impl.exit

15:                                               ; preds = %10
  %.not.i.i = icmp eq i64 %6, 0
  br i1 %.not.i.i, label %21, label %16

16:                                               ; preds = %15
  %17 = getelementptr inbounds nuw i8, ptr %0, i64 24
  %18 = load ptr, ptr %17, align 8, !tbaa !16
  %19 = trunc nuw nsw i64 %6 to i32
  %20 = call zeroext i8 @python_hashlib_Hacl_Hash_SHA3_squeeze(ptr noundef %18, ptr noundef nonnull %11, i32 noundef %19) #4
  br label %21

21:                                               ; preds = %16, %15
  %22 = call ptr @_Py_strhex(ptr noundef nonnull %11, i64 noundef %6) #4
  call void @PyMem_Free(ptr noundef nonnull %11) #4
  br label %_sha3_shake_128_hexdigest_impl.exit

_sha3_shake_128_hexdigest_impl.exit:              ; preds = %21, %13, %8, %2
  %.0 = phi ptr [ null, %2 ], [ null, %8 ], [ %14, %13 ], [ %22, %21 ]
  call void @llvm.lifetime.end.p0(i64 8, ptr nonnull %3) #4
  ret ptr %.0
}